#include <math.h>
#include <stdio.h>
#include <stdlib.h>
#include <string.h>

int main()
{
	char str[256];
	char ch;
	int a,n,i=0,j=0;
	scanf("%d%c",&n,&ch);
	while(i++<n)
	{
		gets(str);
		a=strlen(str);
		if(str[0]=='A')
			{
				printf("T");
			}else if(str[0]=='C')
			{
				printf("G");
			}else if(str[0]=='G')
			{
				printf("C");
			}else if(str[0]=='T')
			{
				printf("A");
			}
		while(j++<a)
		{
			if(str[j]=='A')
			{
				printf("T");
			}else if(str[j]=='C')
			{
				printf("G");
			}else if(str[j]=='G')
			{
				printf("C");
			}else if(str[j]=='T')
			{
				printf("A");
			}
		}
		printf("\n");
		j=0;
	}
}