; ModuleID = 'source-C-CXX/32/2967.c'
source_filename = "source-C-CXX/32/2967.c"
target datalayout = "e-m:e-p270:32:32-p271:32:32-p272:64:64-i64:64-f80:128-n8:16:32:64-S128"
target triple = "x86_64-pc-linux-gnu"

@.str = private unnamed_addr constant [5 x i8] c"%d%c\00", align 1

; Function Attrs: nounwind sspstrong uwtable
define dso_local i32 @main() local_unnamed_addr #0 {
  %1 = alloca [256 x i8], align 16
  %2 = alloca i8, align 1
  %3 = alloca i32, align 4
  %4 = getelementptr inbounds [256 x i8], [256 x i8]* %1, i64 0, i64 0
  call void @llvm.lifetime.start.p0i8(i64 256, i8* nonnull %4) #6
  call void @llvm.lifetime.start.p0i8(i64 1, i8* nonnull %2) #6
  %5 = bitcast i32* %3 to i8*
  call void @llvm.lifetime.start.p0i8(i64 4, i8* nonnull %5) #6
  %6 = call i32 (i8*, ...) @__isoc99_scanf(i8* getelementptr inbounds ([5 x i8], [5 x i8]* @.str, i64 0, i64 0), i32* nonnull %3, i8* nonnull %2)
  %7 = load i32, i32* %3, align 4, !tbaa !5
  %8 = icmp sgt i32 %7, 0
  br i1 %8, label %9, label %44

9:                                                ; preds = %0, %39
  %10 = phi i32 [ %41, %39 ], [ 1, %0 ]
  %11 = call i32 (i8*, ...) bitcast (i32 (...)* @gets to i32 (i8*, ...)*)(i8* nonnull %4) #6
  %12 = call i64 @strlen(i8* noundef nonnull %4) #7
  %13 = trunc i64 %12 to i32
  %14 = load i8, i8* %4, align 16, !tbaa !9
  switch i8 %14, label %21 [
    i8 65, label %18
    i8 67, label %15
    i8 71, label %16
    i8 84, label %17
  ]

15:                                               ; preds = %9
  br label %18

16:                                               ; preds = %9
  br label %18

17:                                               ; preds = %9
  br label %18

18:                                               ; preds = %9, %16, %17, %15
  %19 = phi i32 [ 71, %15 ], [ 65, %17 ], [ 67, %16 ], [ 84, %9 ]
  %20 = call i32 @putchar(i32 %19)
  br label %21

21:                                               ; preds = %18, %9
  %22 = icmp sgt i32 %13, 0
  br i1 %22, label %23, label %39

23:                                               ; preds = %21
  %24 = add i64 %12, 1
  %25 = and i64 %24, 4294967295
  br label %26

26:                                               ; preds = %23, %36
  %27 = phi i64 [ 1, %23 ], [ %37, %36 ]
  %28 = getelementptr inbounds [256 x i8], [256 x i8]* %1, i64 0, i64 %27
  %29 = load i8, i8* %28, align 1, !tbaa !9
  switch i8 %29, label %36 [
    i8 65, label %33
    i8 67, label %30
    i8 71, label %31
    i8 84, label %32
  ]

30:                                               ; preds = %26
  br label %33

31:                                               ; preds = %26
  br label %33

32:                                               ; preds = %26
  br label %33

33:                                               ; preds = %26, %31, %32, %30
  %34 = phi i32 [ 71, %30 ], [ 65, %32 ], [ 67, %31 ], [ 84, %26 ]
  %35 = call i32 @putchar(i32 %34)
  br label %36

36:                                               ; preds = %33, %26
  %37 = add nuw nsw i64 %27, 1
  %38 = icmp eq i64 %37, %25
  br i1 %38, label %39, label %26, !llvm.loop !10

39:                                               ; preds = %36, %21
  %40 = call i32 @putchar(i32 10)
  %41 = add nuw nsw i32 %10, 1
  %42 = load i32, i32* %3, align 4, !tbaa !5
  %43 = icmp slt i32 %10, %42
  br i1 %43, label %9, label %44, !llvm.loop !12

44:                                               ; preds = %39, %0
  call void @llvm.lifetime.end.p0i8(i64 4, i8* nonnull %5) #6
  call void @llvm.lifetime.end.p0i8(i64 1, i8* nonnull %2) #6
  call void @llvm.lifetime.end.p0i8(i64 256, i8* nonnull %4) #6
  ret i32 0
}

; Function Attrs: argmemonly mustprogress nofree nosync nounwind willreturn
declare void @llvm.lifetime.start.p0i8(i64 immarg, i8* nocapture) #1

; Function Attrs: nofree nounwind
declare noundef i32 @__isoc99_scanf(i8* nocapture noundef readonly, ...) local_unnamed_addr #2

declare i32 @gets(...) local_unnamed_addr #3

; Function Attrs: argmemonly mustprogress nofree nounwind readonly willreturn
declare i64 @strlen(i8* nocapture) local_unnamed_addr #4

; Function Attrs: argmemonly mustprogress nofree nosync nounwind willreturn
declare void @llvm.lifetime.end.p0i8(i64 immarg, i8* nocapture) #1

; Function Attrs: nofree nounwind
declare noundef i32 @putchar(i32 noundef) local_unnamed_addr #5


!llvm.module.flags = !{!0, !1, !2, !3}
!llvm.ident = !{!4}

!0 = !{i32 1, !"wchar_size", i32 4}
!1 = !{i32 7, !"PIC Level", i32 2}
!2 = !{i32 7, !"PIE Level", i32 2}
!3 = !{i32 7, !"uwtable", i32 1}
!4 = !{!"clang version 13.0.0"}
!5 = !{!6, !6, i64 0}
!6 = !{!"int", !7, i64 0}
!7 = !{!"omnipotent char", !8, i64 0}
!8 = !{!"Simple C/C++ TBAA"}
!9 = !{!7, !7, i64 0}
!10 = distinct !{!10, !11}
!11 = !{!"llvm.loop.mustprogress"}
!12 = distinct !{!12, !11}
